target datalayout = "e-m:e-p270:32:32-p271:32:32-p272:64:64-i64:64-i128:128-f80:128-n8:16:32:64-S128"
target triple = "x86_64-pc-linux-gnu"

%struct.stbtt__buf = type { ptr, i32, i32 }
%struct.stbtt_fontinfo = type { ptr, ptr, i32, i32, i32, i32, i32, i32, i32, i32, i32, i32, i32, i32, %struct.stbtt__buf, %struct.stbtt__buf, %struct.stbtt__buf, %struct.stbtt__buf, %struct.stbtt__buf, %struct.stbtt__buf }
%struct.stbtt_kerningentry = type { i32, i32, i32 }

; Function Attrs: nounwind uwtable
define signext i16 @ttSHORT(ptr noundef %0) #0 {
  %2 = alloca ptr, align 8
  store ptr %0, ptr %2, align 8, !tbaa !25
  %3 = load ptr, ptr %2, align 8, !tbaa !25
  %4 = getelementptr inbounds i8, ptr %3, i64 0
  %5 = load i8, ptr %4, align 1, !tbaa !13
  %6 = zext i8 %5 to i32
  %7 = mul nsw i32 %6, 256
  %8 = load ptr, ptr %2, align 8, !tbaa !25
  %9 = getelementptr inbounds i8, ptr %8, i64 1
  %10 = load i8, ptr %9, align 1, !tbaa !13
  %11 = zext i8 %10 to i32
  %12 = add nsw i32 %7, %11
  %13 = trunc i32 %12 to i16
  ret i16 %13
}

; Function Attrs: nounwind uwtable
define zeroext i16 @ttUSHORT(ptr noundef %0) #0 {
  %2 = alloca ptr, align 8
  store ptr %0, ptr %2, align 8, !tbaa !25
  %3 = load ptr, ptr %2, align 8, !tbaa !25
  %4 = getelementptr inbounds i8, ptr %3, i64 0
  %5 = load i8, ptr %4, align 1, !tbaa !13
  %6 = zext i8 %5 to i32
  %7 = mul nsw i32 %6, 256
  %8 = load ptr, ptr %2, align 8, !tbaa !25
  %9 = getelementptr inbounds i8, ptr %8, i64 1
  %10 = load i8, ptr %9, align 1, !tbaa !13
  %11 = zext i8 %10 to i32
  %12 = add nsw i32 %7, %11
  %13 = trunc i32 %12 to i16
  ret i16 %13
}

; Function Attrs: nounwind uwtable
define i32 @stbtt_GetKerningTable(ptr noundef %0, ptr noundef %1, i32 noundef %2) #0 {
  %4 = alloca i32, align 4
  %5 = alloca ptr, align 8
  %6 = alloca ptr, align 8
  %7 = alloca i32, align 4
  %8 = alloca ptr, align 8
  %9 = alloca i32, align 4
  %10 = alloca i32, align 4
  %11 = alloca i32, align 4
  store ptr %0, ptr %5, align 8, !tbaa !28
  store ptr %1, ptr %6, align 8, !tbaa !87
  store i32 %2, ptr %7, align 4, !tbaa !14
  call void @llvm.lifetime.start.p0(i64 8, ptr %8) #8
  %12 = load ptr, ptr %5, align 8, !tbaa !28
  %13 = getelementptr inbounds nuw %struct.stbtt_fontinfo, ptr %12, i32 0, i32 1
  %14 = load ptr, ptr %13, align 8, !tbaa !32
  %15 = load ptr, ptr %5, align 8, !tbaa !28
  %16 = getelementptr inbounds nuw %struct.stbtt_fontinfo, ptr %15, i32 0, i32 9
  %17 = load i32, ptr %16, align 4, !tbaa !39
  %18 = sext i32 %17 to i64
  %19 = getelementptr inbounds i8, ptr %14, i64 %18
  store ptr %19, ptr %8, align 8, !tbaa !25
  call void @llvm.lifetime.start.p0(i64 4, ptr %9) #8
  call void @llvm.lifetime.start.p0(i64 4, ptr %10) #8
  %20 = load ptr, ptr %5, align 8, !tbaa !28
  %21 = getelementptr inbounds nuw %struct.stbtt_fontinfo, ptr %20, i32 0, i32 9
  %22 = load i32, ptr %21, align 4, !tbaa !39
  %23 = icmp ne i32 %22, 0
  br i1 %23, label %25, label %24

24:                                               ; preds = %3
  store i32 0, ptr %4, align 4
  store i32 1, ptr %11, align 4
  br label %99

25:                                               ; preds = %3
  %26 = load ptr, ptr %8, align 8, !tbaa !25
  %27 = getelementptr inbounds i8, ptr %26, i64 2
  %28 = call zeroext i16 @ttUSHORT(ptr noundef %27)
  %29 = zext i16 %28 to i32
  %30 = icmp slt i32 %29, 1
  br i1 %30, label %31, label %32

31:                                               ; preds = %25
  store i32 0, ptr %4, align 4
  store i32 1, ptr %11, align 4
  br label %99

32:                                               ; preds = %25
  %33 = load ptr, ptr %8, align 8, !tbaa !25
  %34 = getelementptr inbounds i8, ptr %33, i64 8
  %35 = call zeroext i16 @ttUSHORT(ptr noundef %34)
  %36 = zext i16 %35 to i32
  %37 = icmp ne i32 %36, 1
  br i1 %37, label %38, label %39

38:                                               ; preds = %32
  store i32 0, ptr %4, align 4
  store i32 1, ptr %11, align 4
  br label %99

39:                                               ; preds = %32
  %40 = load ptr, ptr %8, align 8, !tbaa !25
  %41 = getelementptr inbounds i8, ptr %40, i64 10
  %42 = call zeroext i16 @ttUSHORT(ptr noundef %41)
  %43 = zext i16 %42 to i32
  store i32 %43, ptr %10, align 4, !tbaa !14
  %44 = load i32, ptr %7, align 4, !tbaa !14
  %45 = load i32, ptr %10, align 4, !tbaa !14
  %46 = icmp slt i32 %44, %45
  br i1 %46, label %47, label %49

47:                                               ; preds = %39
  %48 = load i32, ptr %7, align 4, !tbaa !14
  store i32 %48, ptr %10, align 4, !tbaa !14
  br label %49

49:                                               ; preds = %47, %39
  store i32 0, ptr %9, align 4, !tbaa !14
  br label %50

50:                                               ; preds = %94, %49
  %51 = load i32, ptr %9, align 4, !tbaa !14
  %52 = load i32, ptr %10, align 4, !tbaa !14
  %53 = icmp slt i32 %51, %52
  br i1 %53, label %54, label %97

54:                                               ; preds = %50
  %55 = load ptr, ptr %8, align 8, !tbaa !25
  %56 = getelementptr inbounds i8, ptr %55, i64 18
  %57 = load i32, ptr %9, align 4, !tbaa !14
  %58 = mul nsw i32 %57, 6
  %59 = sext i32 %58 to i64
  %60 = getelementptr inbounds i8, ptr %56, i64 %59
  %61 = call zeroext i16 @ttUSHORT(ptr noundef %60)
  %62 = zext i16 %61 to i32
  %63 = load ptr, ptr %6, align 8, !tbaa !87
  %64 = load i32, ptr %9, align 4, !tbaa !14
  %65 = sext i32 %64 to i64
  %66 = getelementptr inbounds %struct.stbtt_kerningentry, ptr %63, i64 %65
  %67 = getelementptr inbounds nuw %struct.stbtt_kerningentry, ptr %66, i32 0, i32 0
  store i32 %62, ptr %67, align 4, !tbaa !89
  %68 = load ptr, ptr %8, align 8, !tbaa !25
  %69 = getelementptr inbounds i8, ptr %68, i64 20
  %70 = load i32, ptr %9, align 4, !tbaa !14
  %71 = mul nsw i32 %70, 6
  %72 = sext i32 %71 to i64
  %73 = getelementptr inbounds i8, ptr %69, i64 %72
  %74 = call zeroext i16 @ttUSHORT(ptr noundef %73)
  %75 = zext i16 %74 to i32
  %76 = load ptr, ptr %6, align 8, !tbaa !87
  %77 = load i32, ptr %9, align 4, !tbaa !14
  %78 = sext i32 %77 to i64
  %79 = getelementptr inbounds %struct.stbtt_kerningentry, ptr %76, i64 %78
  %80 = getelementptr inbounds nuw %struct.stbtt_kerningentry, ptr %79, i32 0, i32 1
  store i32 %75, ptr %80, align 4, !tbaa !91
  %81 = load ptr, ptr %8, align 8, !tbaa !25
  %82 = getelementptr inbounds i8, ptr %81, i64 22
  %83 = load i32, ptr %9, align 4, !tbaa !14
  %84 = mul nsw i32 %83, 6
  %85 = sext i32 %84 to i64
  %86 = getelementptr inbounds i8, ptr %82, i64 %85
  %87 = call signext i16 @ttSHORT(ptr noundef %86)
  %88 = sext i16 %87 to i32
  %89 = load ptr, ptr %6, align 8, !tbaa !87
  %90 = load i32, ptr %9, align 4, !tbaa !14
  %91 = sext i32 %90 to i64
  %92 = getelementptr inbounds %struct.stbtt_kerningentry, ptr %89, i64 %91
  %93 = getelementptr inbounds nuw %struct.stbtt_kerningentry, ptr %92, i32 0, i32 2
  store i32 %88, ptr %93, align 4, !tbaa !92
  br label %94

94:                                               ; preds = %54
  %95 = load i32, ptr %9, align 4, !tbaa !14
  %96 = add nsw i32 %95, 1
  store i32 %96, ptr %9, align 4, !tbaa !14
  br label %50, !llvm.loop !93

97:                                               ; preds = %50
  %98 = load i32, ptr %10, align 4, !tbaa !14
  store i32 %98, ptr %4, align 4
  store i32 1, ptr %11, align 4
  br label %99

99:                                               ; preds = %97, %38, %31, %24
  call void @llvm.lifetime.end.p0(i64 4, ptr %10) #8
  call void @llvm.lifetime.end.p0(i64 4, ptr %9) #8
  call void @llvm.lifetime.end.p0(i64 8, ptr %8) #8
  %100 = load i32, ptr %4, align 4
  ret i32 %100
}