; Function Attrs: nofree norecurse nosync nounwind memory(read, argmem: readwrite, inaccessiblemem: none) uwtable
define range(i32 -2147483648, 65536) i32 @stbtt_GetKerningTable(ptr noundef readonly captures(none) %0, ptr noundef writeonly captures(none) %1, i32 noundef %2) local_unnamed_addr #3 {
  %4 = getelementptr inbounds nuw i8, ptr %0, i64 8
  %5 = load ptr, ptr %4, align 8, !tbaa !23
  %6 = getelementptr inbounds nuw i8, ptr %0, i64 44
  %7 = load i32, ptr %6, align 4, !tbaa !30
  %8 = sext i32 %7 to i64
  %9 = getelementptr inbounds i8, ptr %5, i64 %8
  %.not = icmp eq i32 %7, 0
  br i1 %.not, label %.loopexit, label %10

10:                                               ; preds = %3
  %11 = getelementptr inbounds nuw i8, ptr %9, i64 2
  %12 = load i8, ptr %11, align 1, !tbaa !12
  %13 = zext i8 %12 to i16
  %14 = shl nuw i16 %13, 8
  %15 = getelementptr inbounds nuw i8, ptr %9, i64 3
  %16 = load i8, ptr %15, align 1, !tbaa !12
  %17 = zext i8 %16 to i16
  %18 = or disjoint i16 %14, %17
  %19 = icmp eq i16 %18, 0
  br i1 %19, label %.loopexit, label %20

20:                                               ; preds = %10
  %21 = getelementptr inbounds nuw i8, ptr %9, i64 8
  %22 = load i8, ptr %21, align 1, !tbaa !12
  %23 = zext i8 %22 to i16
  %24 = shl nuw i16 %23, 8
  %25 = getelementptr inbounds nuw i8, ptr %9, i64 9
  %26 = load i8, ptr %25, align 1, !tbaa !12
  %27 = zext i8 %26 to i16
  %28 = or disjoint i16 %24, %27
  %.not29 = icmp eq i16 %28, 1
  br i1 %.not29, label %29, label %.loopexit

29:                                               ; preds = %20
  %30 = getelementptr inbounds nuw i8, ptr %9, i64 10
  %31 = load i8, ptr %30, align 1, !tbaa !12
  %32 = zext i8 %31 to i32
  %33 = shl nuw nsw i32 %32, 8
  %34 = getelementptr inbounds nuw i8, ptr %9, i64 11
  %35 = load i8, ptr %34, align 1, !tbaa !12
  %36 = zext i8 %35 to i32
  %37 = or disjoint i32 %33, %36
  %spec.select = tail call i32 @llvm.smin.i32(i32 %2, i32 %37)
  %38 = icmp sgt i32 %spec.select, 0
  br i1 %38, label %.lr.ph, label %.loopexit

.lr.ph:                                           ; preds = %29
  %39 = getelementptr inbounds nuw i8, ptr %9, i64 18
  %40 = getelementptr inbounds nuw i8, ptr %9, i64 20
  %41 = getelementptr inbounds nuw i8, ptr %9, i64 22
  %wide.trip.count = zext nneg i32 %spec.select to i64
  br label %42

42:                                               ; preds = %.lr.ph, %42
  %indvars.iv = phi i64 [ 0, %.lr.ph ], [ %indvars.iv.next, %42 ]
  %43 = mul nuw nsw i64 %indvars.iv, 6
  %44 = getelementptr inbounds nuw i8, ptr %39, i64 %43
  %45 = load i8, ptr %44, align 1, !tbaa !12
  %46 = zext i8 %45 to i32
  %47 = shl nuw nsw i32 %46, 8
  %48 = getelementptr inbounds nuw i8, ptr %44, i64 1
  %49 = load i8, ptr %48, align 1, !tbaa !12
  %50 = zext i8 %49 to i32
  %51 = or disjoint i32 %47, %50
  %52 = getelementptr inbounds nuw %struct.stbtt_kerningentry, ptr %1, i64 %indvars.iv
  store i32 %51, ptr %52, align 4, !tbaa !79
  %53 = getelementptr inbounds nuw i8, ptr %40, i64 %43
  %54 = load i8, ptr %53, align 1, !tbaa !12
  %55 = zext i8 %54 to i32
  %56 = shl nuw nsw i32 %55, 8
  %57 = getelementptr inbounds nuw i8, ptr %53, i64 1
  %58 = load i8, ptr %57, align 1, !tbaa !12
  %59 = zext i8 %58 to i32
  %60 = or disjoint i32 %56, %59
  %61 = getelementptr inbounds nuw i8, ptr %52, i64 4
  store i32 %60, ptr %61, align 4, !tbaa !81
  %62 = getelementptr inbounds nuw i8, ptr %41, i64 %43
  %63 = load i8, ptr %62, align 1, !tbaa !12
  %64 = zext i8 %63 to i16
  %65 = shl nuw i16 %64, 8
  %66 = getelementptr inbounds nuw i8, ptr %62, i64 1
  %67 = load i8, ptr %66, align 1, !tbaa !12
  %68 = zext i8 %67 to i16
  %69 = or disjoint i16 %65, %68
  %70 = sext i16 %69 to i32
  %71 = getelementptr inbounds nuw i8, ptr %52, i64 8
  store i32 %70, ptr %71, align 4, !tbaa !82
  %indvars.iv.next = add nuw nsw i64 %indvars.iv, 1
  %exitcond.not = icmp eq i64 %indvars.iv.next, %wide.trip.count
  br i1 %exitcond.not, label %.loopexit, label %42, !llvm.loop !83

.loopexit:                                        ; preds = %42, %29, %20, %10, %3
  %.026 = phi i32 [ 0, %3 ], [ 0, %10 ], [ 0, %20 ], [ %spec.select, %29 ], [ %spec.select, %42 ]
  ret i32 %.026
}